target datalayout = "e-m:e-p270:32:32-p271:32:32-p272:64:64-i64:64-i128:128-f80:128-n8:16:32:64-S128"
target triple = "x86_64-pc-linux-gnu"

%struct.WebPChunk = type { i32, i32, %struct.WebPData, ptr }
%struct.WebPData = type { ptr, i64 }

; Function Attrs: inlinehint nounwind uwtable
define internal void @WebPDataInit(ptr noundef %0) #3 {
  %2 = alloca ptr, align 8
  store ptr %0, ptr %2, align 8, !tbaa !16
  %3 = load ptr, ptr %2, align 8, !tbaa !16
  %4 = icmp ne ptr %3, null
  br i1 %4, label %5, label %7

5:                                                ; preds = %1
  %6 = load ptr, ptr %2, align 8, !tbaa !16
  call void @llvm.memset.p0.i64(ptr align 8 %6, i8 0, i64 16, i1 false)
  br label %7

7:                                                ; preds = %5, %1
  ret void
}

; Function Attrs: nounwind uwtable
define hidden void @ChunkInit(ptr noundef %0) #0 {
  %2 = alloca ptr, align 8
  store ptr %0, ptr %2, align 8, !tbaa !3
  %3 = load ptr, ptr %2, align 8, !tbaa !3
  call void @llvm.memset.p0.i64(ptr align 8 %3, i8 0, i64 32, i1 false)
  %4 = load ptr, ptr %2, align 8, !tbaa !3
  %5 = getelementptr inbounds nuw %struct.WebPChunk, ptr %4, i32 0, i32 0
  store i32 0, ptr %5, align 8, !tbaa !8
  ret void
}

; Function Attrs: inlinehint nounwind uwtable
define internal void @WebPDataClear(ptr noundef %0) #3 {
  %2 = alloca ptr, align 8
  store ptr %0, ptr %2, align 8, !tbaa !16
  %3 = load ptr, ptr %2, align 8, !tbaa !16
  %4 = icmp ne ptr %3, null
  br i1 %4, label %5, label %10

5:                                                ; preds = %1
  %6 = load ptr, ptr %2, align 8, !tbaa !16
  %7 = getelementptr inbounds nuw %struct.WebPData, ptr %6, i32 0, i32 0
  %8 = load ptr, ptr %7, align 8, !tbaa !18
  call void @WebPFree(ptr noundef %8)
  %9 = load ptr, ptr %2, align 8, !tbaa !16
  call void @WebPDataInit(ptr noundef %9)
  br label %10

10:                                               ; preds = %5, %1
  ret void
}

; Function Attrs: inlinehint nounwind uwtable
define internal i32 @WebPDataCopy(ptr noundef %0, ptr noundef %1) #3 {
  %3 = alloca i32, align 4
  %4 = alloca ptr, align 8
  %5 = alloca ptr, align 8
  store ptr %0, ptr %4, align 8, !tbaa !16
  store ptr %1, ptr %5, align 8, !tbaa !16
  %6 = load ptr, ptr %4, align 8, !tbaa !16
  %7 = icmp eq ptr %6, null
  br i1 %7, label %11, label %8

8:                                                ; preds = %2
  %9 = load ptr, ptr %5, align 8, !tbaa !16
  %10 = icmp eq ptr %9, null
  br i1 %10, label %11, label %12

11:                                               ; preds = %8, %2
  store i32 0, ptr %3, align 4
  br label %51

12:                                               ; preds = %8
  %13 = load ptr, ptr %5, align 8, !tbaa !16
  call void @WebPDataInit(ptr noundef %13)
  %14 = load ptr, ptr %4, align 8, !tbaa !16
  %15 = getelementptr inbounds nuw %struct.WebPData, ptr %14, i32 0, i32 0
  %16 = load ptr, ptr %15, align 8, !tbaa !18
  %17 = icmp ne ptr %16, null
  br i1 %17, label %18, label %50

18:                                               ; preds = %12
  %19 = load ptr, ptr %4, align 8, !tbaa !16
  %20 = getelementptr inbounds nuw %struct.WebPData, ptr %19, i32 0, i32 1
  %21 = load i64, ptr %20, align 8, !tbaa !32
  %22 = icmp ne i64 %21, 0
  br i1 %22, label %23, label %50

23:                                               ; preds = %18
  %24 = load ptr, ptr %4, align 8, !tbaa !16
  %25 = getelementptr inbounds nuw %struct.WebPData, ptr %24, i32 0, i32 1
  %26 = load i64, ptr %25, align 8, !tbaa !32
  %27 = call ptr @WebPMalloc(i64 noundef %26)
  %28 = load ptr, ptr %5, align 8, !tbaa !16
  %29 = getelementptr inbounds nuw %struct.WebPData, ptr %28, i32 0, i32 0
  store ptr %27, ptr %29, align 8, !tbaa !18
  %30 = load ptr, ptr %5, align 8, !tbaa !16
  %31 = getelementptr inbounds nuw %struct.WebPData, ptr %30, i32 0, i32 0
  %32 = load ptr, ptr %31, align 8, !tbaa !18
  %33 = icmp eq ptr %32, null
  br i1 %33, label %34, label %35

34:                                               ; preds = %23
  store i32 0, ptr %3, align 4
  br label %51

35:                                               ; preds = %23
  %36 = load ptr, ptr %5, align 8, !tbaa !16
  %37 = getelementptr inbounds nuw %struct.WebPData, ptr %36, i32 0, i32 0
  %38 = load ptr, ptr %37, align 8, !tbaa !18
  %39 = load ptr, ptr %4, align 8, !tbaa !16
  %40 = getelementptr inbounds nuw %struct.WebPData, ptr %39, i32 0, i32 0
  %41 = load ptr, ptr %40, align 8, !tbaa !18
  %42 = load ptr, ptr %4, align 8, !tbaa !16
  %43 = getelementptr inbounds nuw %struct.WebPData, ptr %42, i32 0, i32 1
  %44 = load i64, ptr %43, align 8, !tbaa !32
  call void @llvm.memcpy.p0.p0.i64(ptr align 1 %38, ptr align 1 %41, i64 %44, i1 false)
  %45 = load ptr, ptr %4, align 8, !tbaa !16
  %46 = getelementptr inbounds nuw %struct.WebPData, ptr %45, i32 0, i32 1
  %47 = load i64, ptr %46, align 8, !tbaa !32
  %48 = load ptr, ptr %5, align 8, !tbaa !16
  %49 = getelementptr inbounds nuw %struct.WebPData, ptr %48, i32 0, i32 1
  store i64 %47, ptr %49, align 8, !tbaa !32
  br label %50

50:                                               ; preds = %35, %18, %12
  store i32 1, ptr %3, align 4
  br label %51

51:                                               ; preds = %50, %34, %11
  %52 = load i32, ptr %3, align 4
  ret i32 %52
}

; Function Attrs: nounwind uwtable
define hidden ptr @ChunkRelease(ptr noundef %0) #0 {
  %2 = alloca ptr, align 8
  %3 = alloca ptr, align 8
  %4 = alloca ptr, align 8
  %5 = alloca i32, align 4
  store ptr %0, ptr %3, align 8, !tbaa !3
  call void @llvm.lifetime.start.p0(i64 8, ptr %4) #6
  %6 = load ptr, ptr %3, align 8, !tbaa !3
  %7 = icmp eq ptr %6, null
  br i1 %7, label %8, label %9

8:                                                ; preds = %1
  store ptr null, ptr %2, align 8
  store i32 1, ptr %5, align 4
  br label %23

9:                                                ; preds = %1
  %10 = load ptr, ptr %3, align 8, !tbaa !3
  %11 = getelementptr inbounds nuw %struct.WebPChunk, ptr %10, i32 0, i32 1
  %12 = load i32, ptr %11, align 4, !tbaa !14
  %13 = icmp ne i32 %12, 0
  br i1 %13, label %14, label %17

14:                                               ; preds = %9
  %15 = load ptr, ptr %3, align 8, !tbaa !3
  %16 = getelementptr inbounds nuw %struct.WebPChunk, ptr %15, i32 0, i32 2
  call void @WebPDataClear(ptr noundef %16)
  br label %17

17:                                               ; preds = %14, %9
  %18 = load ptr, ptr %3, align 8, !tbaa !3
  %19 = getelementptr inbounds nuw %struct.WebPChunk, ptr %18, i32 0, i32 3
  %20 = load ptr, ptr %19, align 8, !tbaa !15
  store ptr %20, ptr %4, align 8, !tbaa !3
  %21 = load ptr, ptr %3, align 8, !tbaa !3
  call void @ChunkInit(ptr noundef %21)
  %22 = load ptr, ptr %4, align 8, !tbaa !3
  store ptr %22, ptr %2, align 8
  store i32 1, ptr %5, align 4
  br label %23

23:                                               ; preds = %17, %8
  call void @llvm.lifetime.end.p0(i64 8, ptr %4) #6
  %24 = load ptr, ptr %2, align 8
  ret ptr %24
}

; Function Attrs: nounwind uwtable
define hidden i32 @ChunkAssignData(ptr noundef %0, ptr noundef %1, i32 noundef %2, i32 noundef %3) #0 {
  %5 = alloca i32, align 4
  %6 = alloca ptr, align 8
  %7 = alloca ptr, align 8
  %8 = alloca i32, align 4
  %9 = alloca i32, align 4
  store ptr %0, ptr %6, align 8, !tbaa !3
  store ptr %1, ptr %7, align 8, !tbaa !16
  store i32 %2, ptr %8, align 4, !tbaa !19
  store i32 %3, ptr %9, align 4, !tbaa !19
  %10 = load i32, ptr %9, align 4, !tbaa !19
  %11 = icmp eq i32 %10, 1480085590
  br i1 %11, label %15, label %12

12:                                               ; preds = %4
  %13 = load i32, ptr %9, align 4, !tbaa !19
  %14 = icmp eq i32 %13, 1296649793
  br i1 %14, label %15, label %16

15:                                               ; preds = %12, %4
  store i32 1, ptr %8, align 4, !tbaa !19
  br label %16

16:                                               ; preds = %15, %12
  %17 = load ptr, ptr %6, align 8, !tbaa !3
  %18 = call ptr @ChunkRelease(ptr noundef %17)
  %19 = load ptr, ptr %7, align 8, !tbaa !16
  %20 = icmp ne ptr %19, null
  br i1 %20, label %21, label %39

21:                                               ; preds = %16
  %22 = load i32, ptr %8, align 4, !tbaa !19
  %23 = icmp ne i32 %22, 0
  br i1 %23, label %24, label %34

24:                                               ; preds = %21
  %25 = load ptr, ptr %7, align 8, !tbaa !16
  %26 = load ptr, ptr %6, align 8, !tbaa !3
  %27 = getelementptr inbounds nuw %struct.WebPChunk, ptr %26, i32 0, i32 2
  %28 = call i32 @WebPDataCopy(ptr noundef %25, ptr noundef %27)
  %29 = icmp ne i32 %28, 0
  br i1 %29, label %31, label %30

30:                                               ; preds = %24
  store i32 -3, ptr %5, align 4
  br label %43

31:                                               ; preds = %24
  %32 = load ptr, ptr %6, align 8, !tbaa !3
  %33 = getelementptr inbounds nuw %struct.WebPChunk, ptr %32, i32 0, i32 1
  store i32 1, ptr %33, align 4, !tbaa !14
  br label %38

34:                                               ; preds = %21
  %35 = load ptr, ptr %6, align 8, !tbaa !3
  %36 = getelementptr inbounds nuw %struct.WebPChunk, ptr %35, i32 0, i32 2
  %37 = load ptr, ptr %7, align 8, !tbaa !16
  call void @llvm.memcpy.p0.p0.i64(ptr align 8 %36, ptr align 8 %37, i64 16, i1 false), !tbaa.struct !30
  br label %38

38:                                               ; preds = %34, %31
  br label %39

39:                                               ; preds = %38, %16
  %40 = load i32, ptr %9, align 4, !tbaa !19
  %41 = load ptr, ptr %6, align 8, !tbaa !3
  %42 = getelementptr inbounds nuw %struct.WebPChunk, ptr %41, i32 0, i32 0
  store i32 %40, ptr %42, align 8, !tbaa !8
  store i32 1, ptr %5, align 4
  br label %43

43:                                               ; preds = %39, %30
  %44 = load i32, ptr %5, align 4
  ret i32 %44
}