; Function Attrs: nounwind uwtable
define hidden range(i32 -3, 2) i32 @ChunkAssignData(ptr noundef captures(address_is_null) %0, ptr noundef readonly captures(address_is_null) %1, i32 noundef %2, i32 noundef %3) local_unnamed_addr #3 {
  switch i32 %3, label %6 [
    i32 1480085590, label %5
    i32 1296649793, label %5
  ]

5:                                                ; preds = %4, %4
  br label %6

6:                                                ; preds = %4, %5
  %.013 = phi i32 [ 1, %5 ], [ %2, %4 ]
  %7 = icmp eq ptr %0, null
  br i1 %7, label %ChunkRelease.exit, label %8

8:                                                ; preds = %6
  %9 = getelementptr inbounds nuw i8, ptr %0, i64 4
  %10 = load i32, ptr %9, align 4, !tbaa !3
  %.not.i = icmp eq i32 %10, 0
  br i1 %.not.i, label %14, label %11

11:                                               ; preds = %8
  %12 = getelementptr inbounds nuw i8, ptr %0, i64 8
  %13 = load ptr, ptr %12, align 8, !tbaa !13
  tail call void @WebPFree(ptr noundef %13) #13
  br label %14

14:                                               ; preds = %11, %8
  tail call void @llvm.memset.p0.i64(ptr noundef nonnull align 8 dereferenceable(32) %0, i8 0, i64 32, i1 false)
  br label %ChunkRelease.exit

ChunkRelease.exit:                                ; preds = %6, %14
  %.not = icmp eq ptr %1, null
  br i1 %.not, label %33, label %15

15:                                               ; preds = %ChunkRelease.exit
  %.not15 = icmp eq i32 %.013, 0
  %16 = getelementptr inbounds nuw i8, ptr %0, i64 8
  br i1 %.not15, label %32, label %17

17:                                               ; preds = %15
  tail call void @llvm.memset.p0.i64(ptr noundef nonnull align 8 dereferenceable(16) %16, i8 0, i64 16, i1 false)
  %18 = load ptr, ptr %1, align 8, !tbaa !13
  %.not.i17 = icmp eq ptr %18, null
  br i1 %.not.i17, label %30, label %19

19:                                               ; preds = %17
  %20 = getelementptr inbounds nuw i8, ptr %1, i64 8
  %21 = load i64, ptr %20, align 8, !tbaa !24
  %.not18.i = icmp eq i64 %21, 0
  br i1 %.not18.i, label %30, label %22

22:                                               ; preds = %19
  %23 = tail call ptr @WebPMalloc(i64 noundef %21) #13
  store ptr %23, ptr %16, align 8, !tbaa !13
  %24 = icmp eq ptr %23, null
  br i1 %24, label %WebPDataCopy.exit, label %25

25:                                               ; preds = %22
  %26 = load ptr, ptr %1, align 8, !tbaa !13
  %27 = load i64, ptr %20, align 8, !tbaa !24
  tail call void @llvm.memcpy.p0.p0.i64(ptr nonnull align 1 %23, ptr align 1 %26, i64 %27, i1 false)
  %28 = load i64, ptr %20, align 8, !tbaa !24
  %29 = getelementptr inbounds nuw i8, ptr %0, i64 16
  store i64 %28, ptr %29, align 8, !tbaa !24
  br label %30

30:                                               ; preds = %25, %19, %17
  %31 = getelementptr inbounds nuw i8, ptr %0, i64 4
  store i32 1, ptr %31, align 4, !tbaa !3
  br label %33

32:                                               ; preds = %15
  tail call void @llvm.memcpy.p0.p0.i64(ptr noundef nonnull align 8 dereferenceable(16) %16, ptr noundef nonnull align 8 dereferenceable(16) %1, i64 16, i1 false), !tbaa.struct !25
  br label %33

33:                                               ; preds = %30, %32, %ChunkRelease.exit
  store i32 %3, ptr %0, align 8, !tbaa !22
  br label %WebPDataCopy.exit

WebPDataCopy.exit:                                ; preds = %22, %33
  %.0 = phi i32 [ 1, %33 ], [ -3, %22 ]
  ret i32 %.0
}